target datalayout = "e-m:e-p270:32:32-p271:32:32-p272:64:64-i64:64-i128:128-f80:128-n8:16:32:64-S128"
target triple = "x86_64-pc-linux-gnu"

%struct.lua_State = type { %struct.GCRef, i8, i8, i8, i8, %struct.MRef, %struct.GCRef, ptr, ptr, %struct.MRef, %struct.MRef, %struct.GCRef, %struct.GCRef, ptr, i32 }
%struct.MRef = type { i64 }
%struct.GCRef = type { i64 }
%union.TValue = type { i64 }
%struct.global_State = type { ptr, ptr, %struct.GCState, %struct.GCstr, i8, i8, i8, i8, %struct.StrInternState, i32, %struct.GCRef, %struct.SBuf, %union.TValue, %union.TValue, %struct.Node, %union.TValue, %struct.GCupval, i32, i32, ptr, ptr, ptr, i32, i32, %struct.GCRef, %struct.MRef, %struct.MRef, %struct.PRNGState, [39 x %struct.GCRef] }
%struct.GCState = type { i64, i64, i8, i8, i8, i8, i32, %struct.GCRef, %struct.MRef, %struct.GCRef, %struct.GCRef, %struct.GCRef, %struct.GCRef, i64, i64, i32, i32, %struct.MRef }
%struct.GCstr = type { %struct.GCRef, i8, i8, i8, i8, i32, i32, i32 }
%struct.StrInternState = type { ptr, i32, i32, i32, i8, i8, i8, i8, i64 }
%struct.SBuf = type { ptr, ptr, ptr, %struct.MRef }
%struct.Node = type { %union.TValue, %union.TValue, %struct.MRef }
%struct.GCupval = type { %struct.GCRef, i8, i8, i8, i8, %union.anon, %struct.MRef, i32 }
%union.anon = type { %struct.anon.1 }
%struct.anon.1 = type { %struct.GCRef, %struct.GCRef }
%struct.PRNGState = type { [4 x i64] }

; Function Attrs: nounwind uwtable
define dso_local ptr @lua_pushvfstring(ptr noundef %0, ptr noundef %1, ptr noundef %2) #0 {
  %4 = alloca ptr, align 8
  %5 = alloca ptr, align 8
  %6 = alloca ptr, align 8
  store ptr %0, ptr %4, align 8, !tbaa !4
  store ptr %1, ptr %5, align 8, !tbaa !20
  store ptr %2, ptr %6, align 8, !tbaa !61
  %7 = load ptr, ptr %4, align 8, !tbaa !4
  %8 = getelementptr inbounds nuw %struct.lua_State, ptr %7, i32 0, i32 5
  %9 = getelementptr inbounds nuw %struct.MRef, ptr %8, i32 0, i32 0
  %10 = load i64, ptr %9, align 8, !tbaa !29
  %11 = inttoptr i64 %10 to ptr
  %12 = getelementptr inbounds nuw %struct.global_State, ptr %11, i32 0, i32 2
  %13 = getelementptr inbounds nuw %struct.GCState, ptr %12, i32 0, i32 0
  %14 = load i64, ptr %13, align 8, !tbaa !43
  %15 = load ptr, ptr %4, align 8, !tbaa !4
  %16 = getelementptr inbounds nuw %struct.lua_State, ptr %15, i32 0, i32 5
  %17 = getelementptr inbounds nuw %struct.MRef, ptr %16, i32 0, i32 0
  %18 = load i64, ptr %17, align 8, !tbaa !29
  %19 = inttoptr i64 %18 to ptr
  %20 = getelementptr inbounds nuw %struct.global_State, ptr %19, i32 0, i32 2
  %21 = getelementptr inbounds nuw %struct.GCState, ptr %20, i32 0, i32 1
  %22 = load i64, ptr %21, align 8, !tbaa !53
  %23 = icmp uge i64 %14, %22
  %24 = xor i1 %23, true
  %25 = xor i1 %24, true
  %26 = zext i1 %25 to i32
  %27 = sext i32 %26 to i64
  %28 = call i64 @llvm.expect.i64(i64 %27, i64 0)
  %29 = icmp ne i64 %28, 0
  br i1 %29, label %30, label %33

30:                                               ; preds = %3
  %31 = load ptr, ptr %4, align 8, !tbaa !4
  %32 = call i32 @lj_gc_step(ptr noundef %31)
  br label %33

33:                                               ; preds = %30, %3
  %34 = load ptr, ptr %4, align 8, !tbaa !4
  %35 = load ptr, ptr %5, align 8, !tbaa !20
  %36 = load ptr, ptr %6, align 8, !tbaa !61
  %37 = call ptr @lj_strfmt_pushvf(ptr noundef %34, ptr noundef %35, ptr noundef %36)
  ret ptr %37
}