; Function Attrs: nounwind uwtable
define dso_local ptr @lua_pushvfstring(ptr noundef %0, ptr noundef %1, ptr noundef %2) local_unnamed_addr #1 {
  %4 = getelementptr inbounds nuw i8, ptr %0, i64 16
  %5 = load i64, ptr %4, align 8, !tbaa !21
  %6 = inttoptr i64 %5 to ptr
  %7 = getelementptr inbounds nuw i8, ptr %6, i64 16
  %8 = load i64, ptr %7, align 8, !tbaa !29
  %9 = getelementptr inbounds nuw i8, ptr %6, i64 24
  %10 = load i64, ptr %9, align 8, !tbaa !39
  %.not = icmp ult i64 %8, %10
  br i1 %.not, label %13, label %11, !prof !27

11:                                               ; preds = %3
  %12 = tail call i32 @lj_gc_step(ptr noundef nonnull %0) #13
  br label %13

13:                                               ; preds = %11, %3
  %14 = tail call ptr @lj_strfmt_pushvf(ptr noundef nonnull %0, ptr noundef %1, ptr noundef %2) #13
  ret ptr %14
}